; Function Attrs: mustprogress nofree norecurse nosync nounwind willreturn memory(argmem: read) uwtable
define i64 @ossl_quic_sstream_get_buffer_avail(ptr noundef readonly captures(none) %0) local_unnamed_addr #5 {
  %2 = getelementptr inbounds nuw i8, ptr %0, i64 8
  %3 = load i64, ptr %2, align 8, !tbaa !9
  %4 = getelementptr i8, ptr %0, i64 16
  %.val.i = load i64, ptr %4, align 8, !tbaa !10
  %5 = getelementptr i8, ptr %0, i64 24
  %.val2.i = load i64, ptr %5, align 8, !tbaa !11
  %.neg.i = sub i64 %3, %.val.i
  %6 = add i64 %.neg.i, %.val2.i
  ret i64 %6
}